target datalayout = "e-m:e-p270:32:32-p271:32:32-p272:64:64-i64:64-i128:128-f80:128-n8:16:32:64-S128"
target triple = "x86_64-pc-linux-gnu"

%struct.SN_env = type { ptr, i32, i32, i32, i32, i32, ptr, ptr }

@s_43 = internal constant [2 x i8] c"\CE\B9", align 1
@s_44 = internal constant [6 x i8] c"\CE\B9\CF\83\CF\84", align 1

; Function Attrs: nounwind uwtable
define internal i32 @r_steps5(ptr noundef %0) #0 {
  %2 = alloca i32, align 4
  %3 = alloca ptr, align 8
  %4 = alloca i32, align 4
  %5 = alloca i32, align 4
  %6 = alloca i32, align 4
  %7 = alloca i32, align 4
  %8 = alloca i32, align 4
  store ptr %0, ptr %3, align 8
  call void @llvm.lifetime.start.p0(i64 4, ptr %4) #3
  %9 = load ptr, ptr %3, align 8
  %10 = getelementptr inbounds nuw %struct.SN_env, ptr %9, i32 0, i32 1
  %11 = load i32, ptr %10, align 8
  %12 = load ptr, ptr %3, align 8
  %13 = getelementptr inbounds nuw %struct.SN_env, ptr %12, i32 0, i32 5
  store i32 %11, ptr %13, align 8
  %14 = load ptr, ptr %3, align 8
  %15 = call i32 @find_among_b(ptr noundef %14, ptr noundef @a_11, i32 noundef 11)
  %16 = icmp ne i32 %15, 0
  br i1 %16, label %18, label %17

17:                                               ; preds = %1
  store i32 0, ptr %2, align 4
  store i32 1, ptr %5, align 4
  br label %87

18:                                               ; preds = %1
  %19 = load ptr, ptr %3, align 8
  %20 = getelementptr inbounds nuw %struct.SN_env, ptr %19, i32 0, i32 1
  %21 = load i32, ptr %20, align 8
  %22 = load ptr, ptr %3, align 8
  %23 = getelementptr inbounds nuw %struct.SN_env, ptr %22, i32 0, i32 4
  store i32 %21, ptr %23, align 4
  call void @llvm.lifetime.start.p0(i64 4, ptr %6) #3
  %24 = load ptr, ptr %3, align 8
  %25 = call i32 @slice_del(ptr noundef %24)
  store i32 %25, ptr %6, align 4
  %26 = load i32, ptr %6, align 4
  %27 = icmp slt i32 %26, 0
  br i1 %27, label %28, label %30

28:                                               ; preds = %18
  %29 = load i32, ptr %6, align 4
  store i32 %29, ptr %2, align 4
  store i32 1, ptr %5, align 4
  br label %31

30:                                               ; preds = %18
  store i32 0, ptr %5, align 4
  br label %31

31:                                               ; preds = %30, %28
  call void @llvm.lifetime.end.p0(i64 4, ptr %6) #3
  %32 = load i32, ptr %5, align 4
  switch i32 %32, label %87 [
    i32 0, label %33
  ]

33:                                               ; preds = %31
  %34 = load ptr, ptr %3, align 8
  %35 = getelementptr inbounds nuw %struct.SN_env, ptr %34, i32 0, i32 7
  %36 = load ptr, ptr %35, align 8
  %37 = getelementptr inbounds i32, ptr %36, i64 0
  store i32 0, ptr %37, align 4
  %38 = load ptr, ptr %3, align 8
  %39 = getelementptr inbounds nuw %struct.SN_env, ptr %38, i32 0, i32 1
  %40 = load i32, ptr %39, align 8
  %41 = load ptr, ptr %3, align 8
  %42 = getelementptr inbounds nuw %struct.SN_env, ptr %41, i32 0, i32 5
  store i32 %40, ptr %42, align 8
  %43 = load ptr, ptr %3, align 8
  %44 = getelementptr inbounds nuw %struct.SN_env, ptr %43, i32 0, i32 1
  %45 = load i32, ptr %44, align 8
  %46 = load ptr, ptr %3, align 8
  %47 = getelementptr inbounds nuw %struct.SN_env, ptr %46, i32 0, i32 4
  store i32 %45, ptr %47, align 4
  %48 = load ptr, ptr %3, align 8
  %49 = call i32 @find_among_b(ptr noundef %48, ptr noundef @a_10, i32 noundef 40)
  store i32 %49, ptr %4, align 4
  %50 = load i32, ptr %4, align 4
  %51 = icmp ne i32 %50, 0
  br i1 %51, label %53, label %52

52:                                               ; preds = %33
  store i32 0, ptr %2, align 4
  store i32 1, ptr %5, align 4
  br label %87

53:                                               ; preds = %33
  %54 = load ptr, ptr %3, align 8
  %55 = getelementptr inbounds nuw %struct.SN_env, ptr %54, i32 0, i32 1
  %56 = load i32, ptr %55, align 8
  %57 = load ptr, ptr %3, align 8
  %58 = getelementptr inbounds nuw %struct.SN_env, ptr %57, i32 0, i32 3
  %59 = load i32, ptr %58, align 8
  %60 = icmp sgt i32 %56, %59
  br i1 %60, label %61, label %62

61:                                               ; preds = %53
  store i32 0, ptr %2, align 4
  store i32 1, ptr %5, align 4
  br label %87

62:                                               ; preds = %53
  %63 = load i32, ptr %4, align 4
  switch i32 %63, label %86 [
    i32 1, label %64
    i32 2, label %75
  ]

64:                                               ; preds = %62
  call void @llvm.lifetime.start.p0(i64 4, ptr %7) #3
  %65 = load ptr, ptr %3, align 8
  %66 = call i32 @slice_from_s(ptr noundef %65, i32 noundef 2, ptr noundef @s_43)
  store i32 %66, ptr %7, align 4
  %67 = load i32, ptr %7, align 4
  %68 = icmp slt i32 %67, 0
  br i1 %68, label %69, label %71

69:                                               ; preds = %64
  %70 = load i32, ptr %7, align 4
  store i32 %70, ptr %2, align 4
  store i32 1, ptr %5, align 4
  br label %72

71:                                               ; preds = %64
  store i32 0, ptr %5, align 4
  br label %72

72:                                               ; preds = %71, %69
  call void @llvm.lifetime.end.p0(i64 4, ptr %7) #3
  %73 = load i32, ptr %5, align 4
  switch i32 %73, label %87 [
    i32 0, label %74
  ]

74:                                               ; preds = %72
  br label %86

75:                                               ; preds = %62
  call void @llvm.lifetime.start.p0(i64 4, ptr %8) #3
  %76 = load ptr, ptr %3, align 8
  %77 = call i32 @slice_from_s(ptr noundef %76, i32 noundef 6, ptr noundef @s_44)
  store i32 %77, ptr %8, align 4
  %78 = load i32, ptr %8, align 4
  %79 = icmp slt i32 %78, 0
  br i1 %79, label %80, label %82

80:                                               ; preds = %75
  %81 = load i32, ptr %8, align 4
  store i32 %81, ptr %2, align 4
  store i32 1, ptr %5, align 4
  br label %83

82:                                               ; preds = %75
  store i32 0, ptr %5, align 4
  br label %83

83:                                               ; preds = %82, %80
  call void @llvm.lifetime.end.p0(i64 4, ptr %8) #3
  %84 = load i32, ptr %5, align 4
  switch i32 %84, label %87 [
    i32 0, label %85
  ]

85:                                               ; preds = %83
  br label %86

86:                                               ; preds = %62, %85, %74
  store i32 1, ptr %2, align 4
  store i32 1, ptr %5, align 4
  br label %87

87:                                               ; preds = %86, %83, %72, %61, %52, %31, %17
  call void @llvm.lifetime.end.p0(i64 4, ptr %4) #3
  %88 = load i32, ptr %2, align 4
  ret i32 %88
}