; Function Attrs: nounwind uwtable
define internal fastcc range(i32 -2147483648, 2) i32 @r_steps5(ptr noundef initializes((24, 28)) %0) unnamed_addr #0 {
  %2 = getelementptr inbounds nuw i8, ptr %0, i64 8
  %3 = load i32, ptr %2, align 8
  %4 = getelementptr inbounds nuw i8, ptr %0, i64 24
  store i32 %3, ptr %4, align 8
  %5 = tail call i32 @find_among_b(ptr noundef %0, ptr noundef nonnull @a_11, i32 noundef 11) #2
  %.not = icmp eq i32 %5, 0
  br i1 %.not, label %29, label %6

6:                                                ; preds = %1
  %7 = load i32, ptr %2, align 8
  %8 = getelementptr inbounds nuw i8, ptr %0, i64 20
  store i32 %7, ptr %8, align 4
  %9 = tail call i32 @slice_del(ptr noundef nonnull %0) #2
  %10 = icmp sgt i32 %9, -1
  br i1 %10, label %11, label %29

11:                                               ; preds = %6
  %12 = getelementptr inbounds nuw i8, ptr %0, i64 40
  %13 = load ptr, ptr %12, align 8
  store i32 0, ptr %13, align 4
  %14 = load i32, ptr %2, align 8
  store i32 %14, ptr %4, align 8
  store i32 %14, ptr %8, align 4
  %15 = tail call i32 @find_among_b(ptr noundef nonnull %0, ptr noundef nonnull @a_10, i32 noundef 40) #2
  %.not35 = icmp eq i32 %15, 0
  br i1 %.not35, label %29, label %16

16:                                               ; preds = %11
  %17 = load i32, ptr %2, align 8
  %18 = getelementptr inbounds nuw i8, ptr %0, i64 16
  %19 = load i32, ptr %18, align 8
  %20 = icmp sgt i32 %17, %19
  br i1 %20, label %29, label %21

21:                                               ; preds = %16
  switch i32 %15, label %28 [
    i32 1, label %22
    i32 2, label %25
  ]

22:                                               ; preds = %21
  %23 = tail call i32 @slice_from_s(ptr noundef nonnull %0, i32 noundef 2, ptr noundef nonnull @s_43) #2
  %24 = icmp sgt i32 %23, -1
  br i1 %24, label %28, label %29

25:                                               ; preds = %21
  %26 = tail call i32 @slice_from_s(ptr noundef nonnull %0, i32 noundef 6, ptr noundef nonnull @s_44) #2
  %27 = icmp sgt i32 %26, -1
  br i1 %27, label %28, label %29

28:                                               ; preds = %25, %22, %21
  br label %29

29:                                               ; preds = %16, %11, %1, %22, %25, %6, %28
  %.0 = phi i32 [ 1, %28 ], [ %26, %25 ], [ %23, %22 ], [ %9, %6 ], [ 0, %1 ], [ 0, %11 ], [ 0, %16 ]
  ret i32 %.0
}